; Function Attrs: mustprogress nofree norecurse nosync nounwind willreturn memory(read, argmem: readwrite, inaccessiblemem: none) uwtable
define internal void @_ZN7rocksdb12_GLOBAL__N_19VectorRep8Iterator4NextEv(ptr nocapture noundef nonnull align 8 dereferenceable(81) %this) unnamed_addr #12 align 2 {
entry:
  %cit_ = getelementptr inbounds i8, ptr %this, i64 32
  %bucket_ = getelementptr inbounds i8, ptr %this, i64 16
  %0 = load ptr, ptr %bucket_, align 8
  %_M_finish.i = getelementptr inbounds i8, ptr %0, i64 8
  %1 = load ptr, ptr %_M_finish.i, align 8
  %2 = load ptr, ptr %cit_, align 8
  %cmp.i = icmp eq ptr %2, %1
  br i1 %cmp.i, label %return, label %if.end

if.end:                                           ; preds = %entry
  %incdec.ptr.i = getelementptr inbounds i8, ptr %2, i64 8
  store ptr %incdec.ptr.i, ptr %cit_, align 8
  br label %return

return:                                           ; preds = %entry, %if.end
  ret void
}